
Keypad_Lock_ATMega32A.elf:     file format elf32-avr

Sections:
Idx Name          Size      VMA       LMA       File off  Algn
  0 .text         0000051e  00000000  00000000  00000054  2**1
                  CONTENTS, ALLOC, LOAD, READONLY, CODE
  1 .data         00000000  00800060  00800060  00000572  2**0
                  CONTENTS, ALLOC, LOAD, DATA
  2 .comment      00000030  00000000  00000000  00000572  2**0
                  CONTENTS, READONLY
  3 .note.gnu.avr.deviceinfo 0000003c  00000000  00000000  000005a4  2**2
                  CONTENTS, READONLY
  4 .debug_aranges 00000060  00000000  00000000  000005e0  2**0
                  CONTENTS, READONLY, DEBUGGING
  5 .debug_info   00001035  00000000  00000000  00000640  2**0
                  CONTENTS, READONLY, DEBUGGING
  6 .debug_abbrev 000007e7  00000000  00000000  00001675  2**0
                  CONTENTS, READONLY, DEBUGGING
  7 .debug_line   000008ac  00000000  00000000  00001e5c  2**0
                  CONTENTS, READONLY, DEBUGGING
  8 .debug_frame  00000098  00000000  00000000  00002708  2**2
                  CONTENTS, READONLY, DEBUGGING
  9 .debug_str    00000573  00000000  00000000  000027a0  2**0
                  CONTENTS, READONLY, DEBUGGING
 10 .debug_loc    00000abb  00000000  00000000  00002d13  2**0
                  CONTENTS, READONLY, DEBUGGING
 11 .debug_ranges 00000040  00000000  00000000  000037ce  2**0
                  CONTENTS, READONLY, DEBUGGING

Disassembly of section .text:

00000000 <__vectors>:
   0:	0c 94 59 00 	jmp	0xb2	; 0xb2 <__ctors_end>
   4:	0c 94 63 00 	jmp	0xc6	; 0xc6 <__bad_interrupt>
   8:	0c 94 63 00 	jmp	0xc6	; 0xc6 <__bad_interrupt>
   c:	0c 94 63 00 	jmp	0xc6	; 0xc6 <__bad_interrupt>
  10:	0c 94 63 00 	jmp	0xc6	; 0xc6 <__bad_interrupt>
  14:	0c 94 63 00 	jmp	0xc6	; 0xc6 <__bad_interrupt>
  18:	0c 94 63 00 	jmp	0xc6	; 0xc6 <__bad_interrupt>
  1c:	0c 94 63 00 	jmp	0xc6	; 0xc6 <__bad_interrupt>
  20:	0c 94 63 00 	jmp	0xc6	; 0xc6 <__bad_interrupt>
  24:	0c 94 63 00 	jmp	0xc6	; 0xc6 <__bad_interrupt>
  28:	0c 94 63 00 	jmp	0xc6	; 0xc6 <__bad_interrupt>
  2c:	0c 94 63 00 	jmp	0xc6	; 0xc6 <__bad_interrupt>
  30:	0c 94 63 00 	jmp	0xc6	; 0xc6 <__bad_interrupt>
  34:	0c 94 63 00 	jmp	0xc6	; 0xc6 <__bad_interrupt>
  38:	0c 94 63 00 	jmp	0xc6	; 0xc6 <__bad_interrupt>
  3c:	0c 94 63 00 	jmp	0xc6	; 0xc6 <__bad_interrupt>
  40:	0c 94 63 00 	jmp	0xc6	; 0xc6 <__bad_interrupt>
  44:	0c 94 63 00 	jmp	0xc6	; 0xc6 <__bad_interrupt>
  48:	0c 94 63 00 	jmp	0xc6	; 0xc6 <__bad_interrupt>
  4c:	0c 94 63 00 	jmp	0xc6	; 0xc6 <__bad_interrupt>
  50:	0c 94 63 00 	jmp	0xc6	; 0xc6 <__bad_interrupt>
  54:	9b 00       	.word	0x009b	; ????
  56:	9e 00       	.word	0x009e	; ????
  58:	a1 00       	.word	0x00a1	; ????
  5a:	a4 00       	.word	0x00a4	; ????
  5c:	a7 00       	.word	0x00a7	; ????
  5e:	aa 00       	.word	0x00aa	; ????
  60:	ad 00       	.word	0x00ad	; ????
  62:	b0 00       	.word	0x00b0	; ????
  64:	b3 00       	.word	0x00b3	; ????
  66:	b6 00       	.word	0x00b6	; ????
  68:	d0 00       	.word	0x00d0	; ????
  6a:	d0 00       	.word	0x00d0	; ????
  6c:	d0 00       	.word	0x00d0	; ????
  6e:	bf 00       	.word	0x00bf	; ????
  70:	c2 00       	.word	0x00c2	; ????
  72:	c5 00       	.word	0x00c5	; ????
  74:	c8 00       	.word	0x00c8	; ????
  76:	cb 00       	.word	0x00cb	; ????
  78:	ce 00       	.word	0x00ce	; ????
  7a:	d0 00       	.word	0x00d0	; ????
  7c:	d0 00       	.word	0x00d0	; ????
  7e:	d0 00       	.word	0x00d0	; ????
  80:	d0 00       	.word	0x00d0	; ????
  82:	d0 00       	.word	0x00d0	; ????
  84:	d0 00       	.word	0x00d0	; ????
  86:	d0 00       	.word	0x00d0	; ????
  88:	d0 00       	.word	0x00d0	; ????
  8a:	d0 00       	.word	0x00d0	; ????
  8c:	d0 00       	.word	0x00d0	; ????
  8e:	d0 00       	.word	0x00d0	; ????
  90:	d0 00       	.word	0x00d0	; ????
  92:	d0 00       	.word	0x00d0	; ????
  94:	d0 00       	.word	0x00d0	; ????
  96:	d0 00       	.word	0x00d0	; ????
  98:	d0 00       	.word	0x00d0	; ????
  9a:	d0 00       	.word	0x00d0	; ????
  9c:	d0 00       	.word	0x00d0	; ????
  9e:	d0 00       	.word	0x00d0	; ????
  a0:	d0 00       	.word	0x00d0	; ????
  a2:	d0 00       	.word	0x00d0	; ????
  a4:	d0 00       	.word	0x00d0	; ????
  a6:	d0 00       	.word	0x00d0	; ????
  a8:	d0 00       	.word	0x00d0	; ????
  aa:	d0 00       	.word	0x00d0	; ????
  ac:	d0 00       	.word	0x00d0	; ????
  ae:	b9 00       	.word	0x00b9	; ????
  b0:	bc 00       	.word	0x00bc	; ????

000000b2 <__ctors_end>:
  b2:	11 24       	eor	r1, r1
  b4:	1f be       	out	0x3f, r1	; 63
  b6:	cf e5       	ldi	r28, 0x5F	; 95
  b8:	d8 e0       	ldi	r29, 0x08	; 8
  ba:	de bf       	out	0x3e, r29	; 62
  bc:	cd bf       	out	0x3d, r28	; 61
  be:	0e 94 a6 01 	call	0x34c	; 0x34c <main>
  c2:	0c 94 8d 02 	jmp	0x51a	; 0x51a <_exit>

000000c6 <__bad_interrupt>:
  c6:	0c 94 00 00 	jmp	0	; 0x0 <__vectors>

000000ca <_Z10init_portsv>:

void init_ports(void)
{
	/*----------------------PORTA----------------------*/
	/*All 8 pins of PORTA set as output drive segments of 7 segment display*/
	DDRA = 255;
  ca:	8f ef       	ldi	r24, 0xFF	; 255
  cc:	8a bb       	out	0x1a, r24	; 26
	PORTA = 0;
  ce:	1b ba       	out	0x1b, r1	; 27

	/*----------------------PORTB----------------------*/
	/*Pins PIN0, PIN1, PIN2, PIN3 of PORTB set as output drive digits of 7 segment display,
	rest of pins of PORTB is unused*/
	DDRB = 0;
  d0:	17 ba       	out	0x17, r1	; 23
	DDRB |= (1 << PIN0) | (1 << PIN1) | (1 << PIN2) | (1 << PIN3);
  d2:	87 b3       	in	r24, 0x17	; 23
  d4:	8f 60       	ori	r24, 0x0F	; 15
  d6:	87 bb       	out	0x17, r24	; 23
	PORTB = 0;
  d8:	18 ba       	out	0x18, r1	; 24

	/*----------------------PORTD----------------------*/
	/*Pins PIN0, PIN1, PIN2, PIN3 of PORTD set as output drive rows of keyboard*/
	DDRD |= (1 << PIN0) | (1 << PIN1) | (1 << PIN2) | (1 << PIN3);
  da:	81 b3       	in	r24, 0x11	; 17
  dc:	8f 60       	ori	r24, 0x0F	; 15
  de:	81 bb       	out	0x11, r24	; 17
	/*Pins PIN4, PIN5, PIN6, PIN7 of PORTD set as input control columns of keyboard*/
	DDRD |= (0 << PIN4) | (0 << PIN5) | (0 << PIN6) | (0 << PIN7);
  e0:	81 b3       	in	r24, 0x11	; 17
  e2:	81 bb       	out	0x11, r24	; 17
	/*Pull-up on input PINS of PORTD*/
	PORTD |= (1<<4)|(1<<5)|(1<<6)|(1<<7);
  e4:	82 b3       	in	r24, 0x12	; 18
  e6:	80 6f       	ori	r24, 0xF0	; 240
  e8:	82 bb       	out	0x12, r24	; 18
  ea:	08 95       	ret

000000ec <_Z22setValueOnWholeDisplayhPh>:
	_delay_us(600);
	clear_display();
}

void setValueOnWholeDisplay(uint8_t value, uint8_t displayed_values[])
{
  ec:	fb 01       	movw	r30, r22
	for(int i=0; i<4; i++)
	{
		displayed_values[i] = value;
  ee:	80 83       	st	Z, r24
  f0:	81 83       	std	Z+1, r24	; 0x01
  f2:	82 83       	std	Z+2, r24	; 0x02
  f4:	83 83       	std	Z+3, r24	; 0x03
  f6:	08 95       	ret

000000f8 <_Z13clear_displayv>:
	}
}

void clear_display(void)
{
	PORTA = 255;
  f8:	8f ef       	ldi	r24, 0xFF	; 255
  fa:	8b bb       	out	0x1b, r24	; 27
	PORTB = 255;
  fc:	88 bb       	out	0x18, r24	; 24
  fe:	08 95       	ret

00000100 <_Z8setDigithh>:
	PORTD |= (1<<4)|(1<<5)|(1<<6)|(1<<7);
}

void setDigit(uint8_t number, uint8_t position)
{
	switch(position)
 100:	62 30       	cpi	r22, 0x02	; 2
 102:	59 f0       	breq	.+22     	; 0x11a <_Z8setDigithh+0x1a>
 104:	18 f4       	brcc	.+6      	; 0x10c <_Z8setDigithh+0xc>
 106:	61 30       	cpi	r22, 0x01	; 1
 108:	31 f0       	breq	.+12     	; 0x116 <_Z8setDigithh+0x16>
 10a:	0c c0       	rjmp	.+24     	; 0x124 <_Z8setDigithh+0x24>
 10c:	63 30       	cpi	r22, 0x03	; 3
 10e:	39 f0       	breq	.+14     	; 0x11e <_Z8setDigithh+0x1e>
 110:	64 30       	cpi	r22, 0x04	; 4
 112:	39 f0       	breq	.+14     	; 0x122 <_Z8setDigithh+0x22>
 114:	07 c0       	rjmp	.+14     	; 0x124 <_Z8setDigithh+0x24>
	{
		case 1:
		PORTB &= ~(1<<0);
 116:	c0 98       	cbi	0x18, 0	; 24
		break;
 118:	05 c0       	rjmp	.+10     	; 0x124 <_Z8setDigithh+0x24>

		case 2:
		PORTB &= ~(1<<1);
 11a:	c1 98       	cbi	0x18, 1	; 24
		break;
 11c:	03 c0       	rjmp	.+6      	; 0x124 <_Z8setDigithh+0x24>

		case 3:
		PORTB &= ~(1<<2);
 11e:	c2 98       	cbi	0x18, 2	; 24
		break;
 120:	01 c0       	rjmp	.+2      	; 0x124 <_Z8setDigithh+0x24>

		case 4:
		PORTB &= ~(1<<3);
 122:	c3 98       	cbi	0x18, 3	; 24
		break;
	}

	switch(number)
 124:	90 e0       	ldi	r25, 0x00	; 0
 126:	8f 32       	cpi	r24, 0x2F	; 47
 128:	91 05       	cpc	r25, r1
 12a:	d0 f5       	brcc	.+116    	; 0x1a0 <_Z8setDigithh+0xa0>
 12c:	fc 01       	movw	r30, r24
 12e:	e6 5d       	subi	r30, 0xD6	; 214
 130:	ff 4f       	sbci	r31, 0xFF	; 255
 132:	0c 94 87 02 	jmp	0x50e	; 0x50e <__tablejump2__>
	{
		/*Hex codes for common anode 7-segment display setup*/
		case 0:
		PORTA = 0xC0;
 136:	80 ec       	ldi	r24, 0xC0	; 192
 138:	8b bb       	out	0x1b, r24	; 27
		break;
 13a:	32 c0       	rjmp	.+100    	; 0x1a0 <_Z8setDigithh+0xa0>

		case 1:
		PORTA = 0xF9;
 13c:	89 ef       	ldi	r24, 0xF9	; 249
 13e:	8b bb       	out	0x1b, r24	; 27
		break;
 140:	2f c0       	rjmp	.+94     	; 0x1a0 <_Z8setDigithh+0xa0>

		case 2:
		PORTA = 0xA4;
 142:	84 ea       	ldi	r24, 0xA4	; 164
 144:	8b bb       	out	0x1b, r24	; 27
		break;
 146:	2c c0       	rjmp	.+88     	; 0x1a0 <_Z8setDigithh+0xa0>

		case 3:
		PORTA = 0xB0;
 148:	80 eb       	ldi	r24, 0xB0	; 176
 14a:	8b bb       	out	0x1b, r24	; 27
		break;
 14c:	29 c0       	rjmp	.+82     	; 0x1a0 <_Z8setDigithh+0xa0>

		case 4:
		PORTA = 0x99;
 14e:	89 e9       	ldi	r24, 0x99	; 153
 150:	8b bb       	out	0x1b, r24	; 27
		break;
 152:	26 c0       	rjmp	.+76     	; 0x1a0 <_Z8setDigithh+0xa0>

		case 5:
		PORTA = 0x92;
 154:	82 e9       	ldi	r24, 0x92	; 146
 156:	8b bb       	out	0x1b, r24	; 27
		break;
 158:	23 c0       	rjmp	.+70     	; 0x1a0 <_Z8setDigithh+0xa0>

		case 6:
		PORTA = 0x82;
 15a:	82 e8       	ldi	r24, 0x82	; 130
 15c:	8b bb       	out	0x1b, r24	; 27
		break;
 15e:	20 c0       	rjmp	.+64     	; 0x1a0 <_Z8setDigithh+0xa0>
		
		case 7:
		PORTA = 0xF8;
 160:	88 ef       	ldi	r24, 0xF8	; 248
 162:	8b bb       	out	0x1b, r24	; 27
		break;
 164:	1d c0       	rjmp	.+58     	; 0x1a0 <_Z8setDigithh+0xa0>

		case 8:
		PORTA = 0x80;
 166:	80 e8       	ldi	r24, 0x80	; 128
 168:	8b bb       	out	0x1b, r24	; 27
		break;
 16a:	1a c0       	rjmp	.+52     	; 0x1a0 <_Z8setDigithh+0xa0>

		case 9:
		PORTA = 0x90;
 16c:	80 e9       	ldi	r24, 0x90	; 144
 16e:	8b bb       	out	0x1b, r24	; 27
		break;
 170:	17 c0       	rjmp	.+46     	; 0x1a0 <_Z8setDigithh+0xa0>
		
		case '-':      // display '-'
		PORTA = 0xBF;
 172:	8f eb       	ldi	r24, 0xBF	; 191
 174:	8b bb       	out	0x1b, r24	; 27
		break;
 176:	14 c0       	rjmp	.+40     	; 0x1a0 <_Z8setDigithh+0xa0>
		
		case '.':	  // display '.'
		PORTA = 0x7F;
 178:	8f e7       	ldi	r24, 0x7F	; 127
 17a:	8b bb       	out	0x1b, r24	; 27
		break;
 17c:	11 c0       	rjmp	.+34     	; 0x1a0 <_Z8setDigithh+0xa0>
		
		case 13:
		PORTA = 0x3F; // display '-' and '.' simultaneously
 17e:	8f e3       	ldi	r24, 0x3F	; 63
 180:	8b bb       	out	0x1b, r24	; 27
		break;
 182:	0e c0       	rjmp	.+28     	; 0x1a0 <_Z8setDigithh+0xa0>
		
		case 14:
		PORTA = 0x8C; // letter P
 184:	8c e8       	ldi	r24, 0x8C	; 140
 186:	8b bb       	out	0x1b, r24	; 27
		break;
 188:	0b c0       	rjmp	.+22     	; 0x1a0 <_Z8setDigithh+0xa0>
		
		case 15:
		PORTA = 0x86; // letter E
 18a:	86 e8       	ldi	r24, 0x86	; 134
 18c:	8b bb       	out	0x1b, r24	; 27
		break;
 18e:	08 c0       	rjmp	.+16     	; 0x1a0 <_Z8setDigithh+0xa0>
		
		case 16:
		PORTA = 0xC8; // letter N
 190:	88 ec       	ldi	r24, 0xC8	; 200
 192:	8b bb       	out	0x1b, r24	; 27
		break;
 194:	05 c0       	rjmp	.+10     	; 0x1a0 <_Z8setDigithh+0xa0>
		
		case 17:
		PORTA = 0x88;  //  letter A
 196:	88 e8       	ldi	r24, 0x88	; 136
 198:	8b bb       	out	0x1b, r24	; 27
		break;
 19a:	02 c0       	rjmp	.+4      	; 0x1a0 <_Z8setDigithh+0xa0>
		
		case 18:
		PORTA = 0xFF;  //display nothing
 19c:	8f ef       	ldi	r24, 0xFF	; 255
 19e:	8b bb       	out	0x1b, r24	; 27
	#else
		//round up by default
		__ticks_dc = (uint32_t)(ceil(fabs(__tmp)));
	#endif

	__builtin_avr_delay_cycles(__ticks_dc);
 1a0:	88 ec       	ldi	r24, 0xC8	; 200
 1a2:	8a 95       	dec	r24
 1a4:	f1 f7       	brne	.-4      	; 0x1a2 <_Z8setDigithh+0xa2>
		break;
	}
	
	_delay_us(600);
	clear_display();
 1a6:	0e 94 7c 00 	call	0xf8	; 0xf8 <_Z13clear_displayv>
 1aa:	08 95       	ret

000001ac <_Z13GetPressedKeyv>:
 1ac:	82 e4       	ldi	r24, 0x42	; 66
 1ae:	8a 95       	dec	r24
 1b0:	f1 f7       	brne	.-4      	; 0x1ae <_Z13GetPressedKeyv+0x2>
 1b2:	00 c0       	rjmp	.+0      	; 0x1b4 <_Z13GetPressedKeyv+0x8>
	uint8_t column_value;
	
	_delay_us(DELAY_BETWEEN_ROWS_POLLING);
	
	// FIRST ROW
	PORTD &= ~(1<<0); // 0 on first row;
 1b4:	90 98       	cbi	0x12, 0	; 18
 1b6:	92 e4       	ldi	r25, 0x42	; 66
 1b8:	9a 95       	dec	r25
 1ba:	f1 f7       	brne	.-4      	; 0x1b8 <_Z13GetPressedKeyv+0xc>
 1bc:	00 c0       	rjmp	.+0      	; 0x1be <_Z13GetPressedKeyv+0x12>
	_delay_us(DELAY_BETWEEN_ROWS_POLLING);

	column_value = PIND;
 1be:	80 b3       	in	r24, 0x10	; 16

	if(!(column_value & 1<<4))
 1c0:	84 fd       	sbrc	r24, 4
 1c2:	0c c0       	rjmp	.+24     	; 0x1dc <_Z13GetPressedKeyv+0x30>
	{
		while(1)
		{
			if(PIND!=column_value)
 1c4:	90 b3       	in	r25, 0x10	; 16
 1c6:	89 17       	cp	r24, r25
 1c8:	e9 f3       	breq	.-6      	; 0x1c4 <_Z13GetPressedKeyv+0x18>
	#else
		//round up by default
		__ticks_dc = (uint32_t)(ceil(fabs(__tmp)));
	#endif

	__builtin_avr_delay_cycles(__ticks_dc);
 1ca:	87 ea       	ldi	r24, 0xA7	; 167
 1cc:	91 e6       	ldi	r25, 0x61	; 97
 1ce:	01 97       	sbiw	r24, 0x01	; 1
 1d0:	f1 f7       	brne	.-4      	; 0x1ce <_Z13GetPressedKeyv+0x22>
 1d2:	00 c0       	rjmp	.+0      	; 0x1d4 <_Z13GetPressedKeyv+0x28>
 1d4:	00 00       	nop
			break;
		}
		_delay_ms(DELAY_AFTER_BUTTON_PRESS_DETECTED);
		return Button::BUTTON_1;
 1d6:	81 e0       	ldi	r24, 0x01	; 1
 1d8:	90 e0       	ldi	r25, 0x00	; 0
 1da:	08 95       	ret
	}
	else if(!(column_value & 1<<5))
 1dc:	85 fd       	sbrc	r24, 5
 1de:	0c c0       	rjmp	.+24     	; 0x1f8 <_Z13GetPressedKeyv+0x4c>
	{
		while(1)
		{
			if(PIND!=column_value)
 1e0:	90 b3       	in	r25, 0x10	; 16
 1e2:	89 17       	cp	r24, r25
 1e4:	e9 f3       	breq	.-6      	; 0x1e0 <_Z13GetPressedKeyv+0x34>
 1e6:	87 ea       	ldi	r24, 0xA7	; 167
 1e8:	91 e6       	ldi	r25, 0x61	; 97
 1ea:	01 97       	sbiw	r24, 0x01	; 1
 1ec:	f1 f7       	brne	.-4      	; 0x1ea <_Z13GetPressedKeyv+0x3e>
 1ee:	00 c0       	rjmp	.+0      	; 0x1f0 <_Z13GetPressedKeyv+0x44>
 1f0:	00 00       	nop
			break;
		}
		_delay_ms(DELAY_AFTER_BUTTON_PRESS_DETECTED);
		return Button::BUTTON_2;
 1f2:	82 e0       	ldi	r24, 0x02	; 2
 1f4:	90 e0       	ldi	r25, 0x00	; 0
 1f6:	08 95       	ret
	}
	else if(!(column_value & 1<<6))
 1f8:	86 fd       	sbrc	r24, 6
 1fa:	0c c0       	rjmp	.+24     	; 0x214 <_Z13GetPressedKeyv+0x68>
	{
		while(1)
		{
			if(PIND!=column_value)
 1fc:	90 b3       	in	r25, 0x10	; 16
 1fe:	89 17       	cp	r24, r25
 200:	e9 f3       	breq	.-6      	; 0x1fc <_Z13GetPressedKeyv+0x50>
 202:	87 ea       	ldi	r24, 0xA7	; 167
 204:	91 e6       	ldi	r25, 0x61	; 97
 206:	01 97       	sbiw	r24, 0x01	; 1
 208:	f1 f7       	brne	.-4      	; 0x206 <_Z13GetPressedKeyv+0x5a>
 20a:	00 c0       	rjmp	.+0      	; 0x20c <_Z13GetPressedKeyv+0x60>
 20c:	00 00       	nop
			break;
		}
		_delay_ms(DELAY_AFTER_BUTTON_PRESS_DETECTED);
		return Button::BUTTON_3;
 20e:	83 e0       	ldi	r24, 0x03	; 3
 210:	90 e0       	ldi	r25, 0x00	; 0
 212:	08 95       	ret
	}
	else if(!(column_value & 1<<7))
 214:	88 23       	and	r24, r24
 216:	64 f0       	brlt	.+24     	; 0x230 <_Z13GetPressedKeyv+0x84>
	{
		while(1)
		{
			if(PIND!=column_value)
 218:	90 b3       	in	r25, 0x10	; 16
 21a:	89 17       	cp	r24, r25
 21c:	e9 f3       	breq	.-6      	; 0x218 <_Z13GetPressedKeyv+0x6c>
 21e:	87 ea       	ldi	r24, 0xA7	; 167
 220:	91 e6       	ldi	r25, 0x61	; 97
 222:	01 97       	sbiw	r24, 0x01	; 1
 224:	f1 f7       	brne	.-4      	; 0x222 <_Z13GetPressedKeyv+0x76>
 226:	00 c0       	rjmp	.+0      	; 0x228 <_Z13GetPressedKeyv+0x7c>
 228:	00 00       	nop
			break;
		}
		_delay_ms(DELAY_AFTER_BUTTON_PRESS_DETECTED);
		return Button::BUTTON_4;
 22a:	84 e0       	ldi	r24, 0x04	; 4
 22c:	90 e0       	ldi	r25, 0x00	; 0
 22e:	08 95       	ret
	}

	PORTD |= (1<<0); // 1 on first row;
 230:	90 9a       	sbi	0x12, 0	; 18
	#else
		//round up by default
		__ticks_dc = (uint32_t)(ceil(fabs(__tmp)));
	#endif

	__builtin_avr_delay_cycles(__ticks_dc);
 232:	92 e4       	ldi	r25, 0x42	; 66
 234:	9a 95       	dec	r25
 236:	f1 f7       	brne	.-4      	; 0x234 <_Z13GetPressedKeyv+0x88>
 238:	00 c0       	rjmp	.+0      	; 0x23a <_Z13GetPressedKeyv+0x8e>
	
	_delay_us(DELAY_BETWEEN_ROWS_POLLING);
	
	// SECOND ROW
	PORTD &= ~(1<<1); // 0 on second row;
 23a:	91 98       	cbi	0x12, 1	; 18
 23c:	82 e4       	ldi	r24, 0x42	; 66
 23e:	8a 95       	dec	r24
 240:	f1 f7       	brne	.-4      	; 0x23e <_Z13GetPressedKeyv+0x92>
 242:	00 c0       	rjmp	.+0      	; 0x244 <_Z13GetPressedKeyv+0x98>
	_delay_us(DELAY_BETWEEN_ROWS_POLLING);

	column_value = PIND;
 244:	80 b3       	in	r24, 0x10	; 16

	if(!(column_value & 1<<4))
 246:	84 fd       	sbrc	r24, 4
 248:	0c c0       	rjmp	.+24     	; 0x262 <_Z13GetPressedKeyv+0xb6>
	{
		while(1)
		{
			if(PIND!=column_value)
 24a:	90 b3       	in	r25, 0x10	; 16
 24c:	89 17       	cp	r24, r25
 24e:	e9 f3       	breq	.-6      	; 0x24a <_Z13GetPressedKeyv+0x9e>
	#else
		//round up by default
		__ticks_dc = (uint32_t)(ceil(fabs(__tmp)));
	#endif

	__builtin_avr_delay_cycles(__ticks_dc);
 250:	87 ea       	ldi	r24, 0xA7	; 167
 252:	91 e6       	ldi	r25, 0x61	; 97
 254:	01 97       	sbiw	r24, 0x01	; 1
 256:	f1 f7       	brne	.-4      	; 0x254 <_Z13GetPressedKeyv+0xa8>
 258:	00 c0       	rjmp	.+0      	; 0x25a <_Z13GetPressedKeyv+0xae>
 25a:	00 00       	nop
			break;
		}
		_delay_ms(DELAY_AFTER_BUTTON_PRESS_DETECTED);
		return Button::BUTTON_5;
 25c:	85 e0       	ldi	r24, 0x05	; 5
 25e:	90 e0       	ldi	r25, 0x00	; 0
 260:	08 95       	ret
	}
	else if(!(column_value & 1<<5))
 262:	85 fd       	sbrc	r24, 5
 264:	0c c0       	rjmp	.+24     	; 0x27e <_Z13GetPressedKeyv+0xd2>
	{
		while(1)
		{
			if(PIND!=column_value)
 266:	90 b3       	in	r25, 0x10	; 16
 268:	89 17       	cp	r24, r25
 26a:	e9 f3       	breq	.-6      	; 0x266 <_Z13GetPressedKeyv+0xba>
 26c:	87 ea       	ldi	r24, 0xA7	; 167
 26e:	91 e6       	ldi	r25, 0x61	; 97
 270:	01 97       	sbiw	r24, 0x01	; 1
 272:	f1 f7       	brne	.-4      	; 0x270 <_Z13GetPressedKeyv+0xc4>
 274:	00 c0       	rjmp	.+0      	; 0x276 <_Z13GetPressedKeyv+0xca>
 276:	00 00       	nop
			break;
		}
		_delay_ms(DELAY_AFTER_BUTTON_PRESS_DETECTED);
		return Button::BUTTON_6;
 278:	86 e0       	ldi	r24, 0x06	; 6
 27a:	90 e0       	ldi	r25, 0x00	; 0
 27c:	08 95       	ret
	}
	else if(!(column_value & 1<<6))
 27e:	86 fd       	sbrc	r24, 6
 280:	0c c0       	rjmp	.+24     	; 0x29a <_Z13GetPressedKeyv+0xee>
	{
		while(1)
		{
			if(PIND!=column_value)
 282:	90 b3       	in	r25, 0x10	; 16
 284:	89 17       	cp	r24, r25
 286:	e9 f3       	breq	.-6      	; 0x282 <_Z13GetPressedKeyv+0xd6>
 288:	87 ea       	ldi	r24, 0xA7	; 167
 28a:	91 e6       	ldi	r25, 0x61	; 97
 28c:	01 97       	sbiw	r24, 0x01	; 1
 28e:	f1 f7       	brne	.-4      	; 0x28c <_Z13GetPressedKeyv+0xe0>
 290:	00 c0       	rjmp	.+0      	; 0x292 <_Z13GetPressedKeyv+0xe6>
 292:	00 00       	nop
			break;
		}
		_delay_ms(DELAY_AFTER_BUTTON_PRESS_DETECTED);
		return Button::BUTTON_7;
 294:	87 e0       	ldi	r24, 0x07	; 7
 296:	90 e0       	ldi	r25, 0x00	; 0
 298:	08 95       	ret
	}
	else if(!(column_value & 1<<7))
 29a:	88 23       	and	r24, r24
 29c:	64 f0       	brlt	.+24     	; 0x2b6 <_Z13GetPressedKeyv+0x10a>
	{
		while(1)
		{
			if(PIND!=column_value)
 29e:	90 b3       	in	r25, 0x10	; 16
 2a0:	89 17       	cp	r24, r25
 2a2:	e9 f3       	breq	.-6      	; 0x29e <_Z13GetPressedKeyv+0xf2>
 2a4:	87 ea       	ldi	r24, 0xA7	; 167
 2a6:	91 e6       	ldi	r25, 0x61	; 97
 2a8:	01 97       	sbiw	r24, 0x01	; 1
 2aa:	f1 f7       	brne	.-4      	; 0x2a8 <_Z13GetPressedKeyv+0xfc>
 2ac:	00 c0       	rjmp	.+0      	; 0x2ae <_Z13GetPressedKeyv+0x102>
 2ae:	00 00       	nop
			break;
		}
		_delay_ms(DELAY_AFTER_BUTTON_PRESS_DETECTED);
		return Button::BUTTON_8;
 2b0:	88 e0       	ldi	r24, 0x08	; 8
 2b2:	90 e0       	ldi	r25, 0x00	; 0
 2b4:	08 95       	ret
	}

	PORTD |= (1<<1); // 1 on second row;
 2b6:	91 9a       	sbi	0x12, 1	; 18
	#else
		//round up by default
		__ticks_dc = (uint32_t)(ceil(fabs(__tmp)));
	#endif

	__builtin_avr_delay_cycles(__ticks_dc);
 2b8:	92 e4       	ldi	r25, 0x42	; 66
 2ba:	9a 95       	dec	r25
 2bc:	f1 f7       	brne	.-4      	; 0x2ba <_Z13GetPressedKeyv+0x10e>
 2be:	00 c0       	rjmp	.+0      	; 0x2c0 <_Z13GetPressedKeyv+0x114>

	_delay_us(DELAY_BETWEEN_ROWS_POLLING);

	// THIRD ROW
	PORTD &= ~(1<<2); // 0 on third row;
 2c0:	92 98       	cbi	0x12, 2	; 18
 2c2:	82 e4       	ldi	r24, 0x42	; 66
 2c4:	8a 95       	dec	r24
 2c6:	f1 f7       	brne	.-4      	; 0x2c4 <_Z13GetPressedKeyv+0x118>
 2c8:	00 c0       	rjmp	.+0      	; 0x2ca <_Z13GetPressedKeyv+0x11e>
	_delay_us(DELAY_BETWEEN_ROWS_POLLING);

	column_value = PIND;
 2ca:	80 b3       	in	r24, 0x10	; 16

	if(!(column_value & 1<<4))
 2cc:	84 fd       	sbrc	r24, 4
 2ce:	0c c0       	rjmp	.+24     	; 0x2e8 <_Z13GetPressedKeyv+0x13c>
	{
		while(1)
		{
			if(PIND!=column_value)
 2d0:	90 b3       	in	r25, 0x10	; 16
 2d2:	89 17       	cp	r24, r25
 2d4:	e9 f3       	breq	.-6      	; 0x2d0 <_Z13GetPressedKeyv+0x124>
	#else
		//round up by default
		__ticks_dc = (uint32_t)(ceil(fabs(__tmp)));
	#endif

	__builtin_avr_delay_cycles(__ticks_dc);
 2d6:	87 ea       	ldi	r24, 0xA7	; 167
 2d8:	91 e6       	ldi	r25, 0x61	; 97
 2da:	01 97       	sbiw	r24, 0x01	; 1
 2dc:	f1 f7       	brne	.-4      	; 0x2da <_Z13GetPressedKeyv+0x12e>
 2de:	00 c0       	rjmp	.+0      	; 0x2e0 <_Z13GetPressedKeyv+0x134>
 2e0:	00 00       	nop
			break;
		}
		_delay_ms(DELAY_AFTER_BUTTON_PRESS_DETECTED);
		return Button::BUTTON_9;
 2e2:	89 e0       	ldi	r24, 0x09	; 9
 2e4:	90 e0       	ldi	r25, 0x00	; 0
 2e6:	08 95       	ret
	}
	else if(!(column_value & 1<<5))
 2e8:	85 fd       	sbrc	r24, 5
 2ea:	0c c0       	rjmp	.+24     	; 0x304 <_Z13GetPressedKeyv+0x158>
	{
		while(1)
		{
			if(PIND!=column_value)
 2ec:	90 b3       	in	r25, 0x10	; 16
 2ee:	89 17       	cp	r24, r25
 2f0:	e9 f3       	breq	.-6      	; 0x2ec <_Z13GetPressedKeyv+0x140>
 2f2:	87 ea       	ldi	r24, 0xA7	; 167
 2f4:	91 e6       	ldi	r25, 0x61	; 97
 2f6:	01 97       	sbiw	r24, 0x01	; 1
 2f8:	f1 f7       	brne	.-4      	; 0x2f6 <_Z13GetPressedKeyv+0x14a>
 2fa:	00 c0       	rjmp	.+0      	; 0x2fc <_Z13GetPressedKeyv+0x150>
 2fc:	00 00       	nop
			break;
		}
		_delay_ms(DELAY_AFTER_BUTTON_PRESS_DETECTED);
		return Button::BUTTON_0;
 2fe:	80 e0       	ldi	r24, 0x00	; 0
 300:	90 e0       	ldi	r25, 0x00	; 0
 302:	08 95       	ret
	}
	else if(!(column_value & 1<<6))
 304:	86 fd       	sbrc	r24, 6
 306:	0c c0       	rjmp	.+24     	; 0x320 <_Z13GetPressedKeyv+0x174>
	{
		while(1)
		{
			if(PIND!=column_value)
 308:	90 b3       	in	r25, 0x10	; 16
 30a:	89 17       	cp	r24, r25
 30c:	e9 f3       	breq	.-6      	; 0x308 <_Z13GetPressedKeyv+0x15c>
 30e:	87 ea       	ldi	r24, 0xA7	; 167
 310:	91 e6       	ldi	r25, 0x61	; 97
 312:	01 97       	sbiw	r24, 0x01	; 1
 314:	f1 f7       	brne	.-4      	; 0x312 <_Z13GetPressedKeyv+0x166>
 316:	00 c0       	rjmp	.+0      	; 0x318 <_Z13GetPressedKeyv+0x16c>
 318:	00 00       	nop
			break;
		}
		_delay_ms(DELAY_AFTER_BUTTON_PRESS_DETECTED);
		return Button::BUTTON_OK;
 31a:	8b e0       	ldi	r24, 0x0B	; 11
 31c:	90 e0       	ldi	r25, 0x00	; 0
 31e:	08 95       	ret
	}
	else if(!(column_value & 1<<7))
 320:	88 23       	and	r24, r24
 322:	64 f0       	brlt	.+24     	; 0x33c <_Z13GetPressedKeyv+0x190>
	{
		while(1)
		{
			if(PIND!=column_value)
 324:	90 b3       	in	r25, 0x10	; 16
 326:	89 17       	cp	r24, r25
 328:	e9 f3       	breq	.-6      	; 0x324 <_Z13GetPressedKeyv+0x178>
 32a:	87 ea       	ldi	r24, 0xA7	; 167
 32c:	91 e6       	ldi	r25, 0x61	; 97
 32e:	01 97       	sbiw	r24, 0x01	; 1
 330:	f1 f7       	brne	.-4      	; 0x32e <_Z13GetPressedKeyv+0x182>
 332:	00 c0       	rjmp	.+0      	; 0x334 <_Z13GetPressedKeyv+0x188>
 334:	00 00       	nop
			break;
		}
		_delay_ms(DELAY_AFTER_BUTTON_PRESS_DETECTED);
		return Button::BUTTON_CANCEL;
 336:	8c e0       	ldi	r24, 0x0C	; 12
 338:	90 e0       	ldi	r25, 0x00	; 0
 33a:	08 95       	ret
	}

	PORTD |= (1<<2); // 0 on third row;
 33c:	92 9a       	sbi	0x12, 2	; 18
	#else
		//round up by default
		__ticks_dc = (uint32_t)(ceil(fabs(__tmp)));
	#endif

	__builtin_avr_delay_cycles(__ticks_dc);
 33e:	92 e4       	ldi	r25, 0x42	; 66
 340:	9a 95       	dec	r25
 342:	f1 f7       	brne	.-4      	; 0x340 <_Z13GetPressedKeyv+0x194>
 344:	00 c0       	rjmp	.+0      	; 0x346 <_Z13GetPressedKeyv+0x19a>

	_delay_us(DELAY_BETWEEN_ROWS_POLLING);

	return Button::NO_BUTTON_PRESSED;      //reserved value meaning that input did not change
 346:	8f ef       	ldi	r24, 0xFF	; 255
 348:	9f ef       	ldi	r25, 0xFF	; 255
 34a:	08 95       	ret

0000034c <main>:
#include <stdint.h>
#include <util/delay.h>	 //header containing delay functions
#include "functions.h"

int main(void)
{
 34c:	cf 93       	push	r28
 34e:	df 93       	push	r29
 350:	00 d0       	rcall	.+0      	; 0x352 <main+0x6>
 352:	00 d0       	rcall	.+0      	; 0x354 <main+0x8>
 354:	cd b7       	in	r28, 0x3d	; 61
 356:	de b7       	in	r29, 0x3e	; 62
	uint8_t digitPointer = 1;
	Button numberOnKeypad = Button::NO_BUTTON_PRESSED;			//value read from keypad
	uint8_t digitsOnDisplay[4] = {'-', '-', '-', '-'};          //table of values currently shown on 7-segment display
 358:	8d e2       	ldi	r24, 0x2D	; 45
 35a:	89 83       	std	Y+1, r24	; 0x01
 35c:	8a 83       	std	Y+2, r24	; 0x02
 35e:	8b 83       	std	Y+3, r24	; 0x03
 360:	8c 83       	std	Y+4, r24	; 0x04
	uint8_t code[4];											//table storing code set by admin
	uint8_t enteredCode[4];										//table storing code entered by user

	init_ports();
 362:	0e 94 65 00 	call	0xca	; 0xca <_Z10init_portsv>
#include <util/delay.h>	 //header containing delay functions
#include "functions.h"

int main(void)
{
	uint8_t digitPointer = 1;
 366:	11 e0       	ldi	r17, 0x01	; 1

	//UserSetsCode();

	while (1)
	{
		numberOnKeypad = GetPressedKey();							//poll for value on keypad
 368:	0e 94 d6 00 	call	0x1ac	; 0x1ac <_Z13GetPressedKeyv>

		if(numberOnKeypad != Button::NO_BUTTON_PRESSED)				//if input changed
 36c:	8f 3f       	cpi	r24, 0xFF	; 255
 36e:	2f ef       	ldi	r18, 0xFF	; 255
 370:	92 07       	cpc	r25, r18
 372:	61 f1       	breq	.+88     	; 0x3cc <main+0x80>
		{
			if(numberOnKeypad == Button::BUTTON_CANCEL)								//if cancel button was pressed
 374:	8c 30       	cpi	r24, 0x0C	; 12
 376:	91 05       	cpc	r25, r1
 378:	41 f4       	brne	.+16     	; 0x38a <main+0x3e>
			{
				setValueOnWholeDisplay('-', digitsOnDisplay);
 37a:	be 01       	movw	r22, r28
 37c:	6f 5f       	subi	r22, 0xFF	; 255
 37e:	7f 4f       	sbci	r23, 0xFF	; 255
 380:	8d e2       	ldi	r24, 0x2D	; 45
 382:	0e 94 76 00 	call	0xec	; 0xec <_Z22setValueOnWholeDisplayhPh>
				digitPointer = 1;
 386:	11 e0       	ldi	r17, 0x01	; 1
				continue;
 388:	ef cf       	rjmp	.-34     	; 0x368 <main+0x1c>
			}
			
			if(digitPointer == 5 && numberOnKeypad == Button::BUTTON_OK)						//if 4 digits were entered and OK button was pressed
 38a:	15 30       	cpi	r17, 0x05	; 5
 38c:	d1 f4       	brne	.+52     	; 0x3c2 <main+0x76>
 38e:	8b 30       	cpi	r24, 0x0B	; 11
 390:	91 05       	cpc	r25, r1
 392:	b9 f4       	brne	.+46     	; 0x3c2 <main+0x76>
			{
				code[0] = digitsOnDisplay[0];
 394:	c9 80       	ldd	r12, Y+1	; 0x01
				code[1] = digitsOnDisplay[1];
 396:	ba 80       	ldd	r11, Y+2	; 0x02
				code[2] = digitsOnDisplay[2];
 398:	9b 80       	ldd	r9, Y+3	; 0x03
				code[3] = digitsOnDisplay[3];
 39a:	ac 80       	ldd	r10, Y+4	; 0x04
			setValueOnWholeDisplay('-', digitsOnDisplay);
			digitPointer = 1;
		}
	}
	
	setValueOnWholeDisplay(13, digitsOnDisplay);										//set display to '-.' in locked state
 39c:	be 01       	movw	r22, r28
 39e:	6f 5f       	subi	r22, 0xFF	; 255
 3a0:	7f 4f       	sbci	r23, 0xFF	; 255
 3a2:	8d e0       	ldi	r24, 0x0D	; 13
 3a4:	0e 94 76 00 	call	0xec	; 0xec <_Z22setValueOnWholeDisplayhPh>

	digitPointer = 1;
 3a8:	11 e0       	ldi	r17, 0x01	; 1
					break;
				}
				
				else
				{
					digitsOnDisplay[0] = 8;   //B
 3aa:	68 94       	set
 3ac:	dd 24       	eor	r13, r13
 3ae:	d3 f8       	bld	r13, 3
					digitsOnDisplay[1] = 17;  //A
 3b0:	0f 2e       	mov	r0, r31
 3b2:	f1 e1       	ldi	r31, 0x11	; 17
 3b4:	ef 2e       	mov	r14, r31
 3b6:	f0 2d       	mov	r31, r0
					digitsOnDisplay[2] = 0;   //D
					digitsOnDisplay[3] = 18;  //nothing
 3b8:	0f 2e       	mov	r0, r31
 3ba:	f2 e1       	ldi	r31, 0x12	; 18
 3bc:	ff 2e       	mov	r15, r31
 3be:	f0 2d       	mov	r31, r0
 3c0:	20 c0       	rjmp	.+64     	; 0x402 <__LOCK_REGION_LENGTH__+0x2>
				code[2] = digitsOnDisplay[2];
				code[3] = digitsOnDisplay[3];
				break;
			}
			
			digitsOnDisplay[digitPointer-1] = static_cast<uint8_t>(numberOnKeypad);
 3c2:	fe 01       	movw	r30, r28
 3c4:	e1 0f       	add	r30, r17
 3c6:	f1 1d       	adc	r31, r1
 3c8:	80 83       	st	Z, r24
			digitPointer++;
 3ca:	1f 5f       	subi	r17, 0xFF	; 255
		}

		if(digitPointer < 6)
 3cc:	16 30       	cpi	r17, 0x06	; 6
 3ce:	88 f4       	brcc	.+34     	; 0x3f2 <main+0xa6>
		{
			setDigit(digitsOnDisplay[0], 1);
 3d0:	61 e0       	ldi	r22, 0x01	; 1
 3d2:	89 81       	ldd	r24, Y+1	; 0x01
 3d4:	0e 94 80 00 	call	0x100	; 0x100 <_Z8setDigithh>
			setDigit(digitsOnDisplay[1], 2);
 3d8:	62 e0       	ldi	r22, 0x02	; 2
 3da:	8a 81       	ldd	r24, Y+2	; 0x02
 3dc:	0e 94 80 00 	call	0x100	; 0x100 <_Z8setDigithh>
			setDigit(digitsOnDisplay[2], 3);
 3e0:	63 e0       	ldi	r22, 0x03	; 3
 3e2:	8b 81       	ldd	r24, Y+3	; 0x03
 3e4:	0e 94 80 00 	call	0x100	; 0x100 <_Z8setDigithh>
			setDigit(digitsOnDisplay[3], 4);
 3e8:	64 e0       	ldi	r22, 0x04	; 4
 3ea:	8c 81       	ldd	r24, Y+4	; 0x04
 3ec:	0e 94 80 00 	call	0x100	; 0x100 <_Z8setDigithh>
 3f0:	bb cf       	rjmp	.-138    	; 0x368 <main+0x1c>
		}
		else
		{
			setValueOnWholeDisplay('-', digitsOnDisplay);
 3f2:	be 01       	movw	r22, r28
 3f4:	6f 5f       	subi	r22, 0xFF	; 255
 3f6:	7f 4f       	sbci	r23, 0xFF	; 255
 3f8:	8d e2       	ldi	r24, 0x2D	; 45
 3fa:	0e 94 76 00 	call	0xec	; 0xec <_Z22setValueOnWholeDisplayhPh>
			digitPointer = 1;
 3fe:	11 e0       	ldi	r17, 0x01	; 1
 400:	b3 cf       	rjmp	.-154    	; 0x368 <main+0x1c>
	long int del = 0;

	//COMPARING ENTERED CODE WITH CODE SET BEFORE
	while (1)
	{
		numberOnKeypad = GetPressedKey();							//poll for value on keypad
 402:	0e 94 d6 00 	call	0x1ac	; 0x1ac <_Z13GetPressedKeyv>

		if(numberOnKeypad != Button::NO_BUTTON_PRESSED)									//if input changed
 406:	8f 3f       	cpi	r24, 0xFF	; 255
 408:	2f ef       	ldi	r18, 0xFF	; 255
 40a:	92 07       	cpc	r25, r18
 40c:	09 f4       	brne	.+2      	; 0x410 <__LOCK_REGION_LENGTH__+0x10>
 40e:	53 c0       	rjmp	.+166    	; 0x4b6 <__LOCK_REGION_LENGTH__+0xb6>
		{
			if(numberOnKeypad == Button::BUTTON_CANCEL)								//if cancel button was pressed
 410:	8c 30       	cpi	r24, 0x0C	; 12
 412:	91 05       	cpc	r25, r1
 414:	41 f4       	brne	.+16     	; 0x426 <__LOCK_REGION_LENGTH__+0x26>
			{
				setValueOnWholeDisplay(13, digitsOnDisplay);
 416:	be 01       	movw	r22, r28
 418:	6f 5f       	subi	r22, 0xFF	; 255
 41a:	7f 4f       	sbci	r23, 0xFF	; 255
 41c:	8d e0       	ldi	r24, 0x0D	; 13
 41e:	0e 94 76 00 	call	0xec	; 0xec <_Z22setValueOnWholeDisplayhPh>
				digitPointer=1;
 422:	11 e0       	ldi	r17, 0x01	; 1
				continue;
 424:	ee cf       	rjmp	.-36     	; 0x402 <__LOCK_REGION_LENGTH__+0x2>
			}
			
			if(digitPointer==5 && numberOnKeypad == Button::BUTTON_OK)						//if 4 digits were entered and OK button was pressed
 426:	15 30       	cpi	r17, 0x05	; 5
 428:	09 f0       	breq	.+2      	; 0x42c <__LOCK_REGION_LENGTH__+0x2c>
 42a:	40 c0       	rjmp	.+128    	; 0x4ac <__LOCK_REGION_LENGTH__+0xac>
 42c:	8b 30       	cpi	r24, 0x0B	; 11
 42e:	91 05       	cpc	r25, r1
 430:	e9 f5       	brne	.+122    	; 0x4ac <__LOCK_REGION_LENGTH__+0xac>
				enteredCode[0] = digitsOnDisplay[0];
				enteredCode[1] = digitsOnDisplay[1];
				enteredCode[2] = digitsOnDisplay[2];
				enteredCode[3] = digitsOnDisplay[3];
				
				if(enteredCode[0]==code[0] && enteredCode[1]==code[1] && enteredCode[2]==code[2] && enteredCode[3]==code[3]) //check if code is correct
 432:	89 81       	ldd	r24, Y+1	; 0x01
 434:	c8 12       	cpse	r12, r24
 436:	11 c0       	rjmp	.+34     	; 0x45a <__LOCK_REGION_LENGTH__+0x5a>
 438:	8a 81       	ldd	r24, Y+2	; 0x02
 43a:	b8 12       	cpse	r11, r24
 43c:	0e c0       	rjmp	.+28     	; 0x45a <__LOCK_REGION_LENGTH__+0x5a>
 43e:	8b 81       	ldd	r24, Y+3	; 0x03
 440:	98 12       	cpse	r9, r24
 442:	0b c0       	rjmp	.+22     	; 0x45a <__LOCK_REGION_LENGTH__+0x5a>
 444:	8c 81       	ldd	r24, Y+4	; 0x04
 446:	a8 12       	cpse	r10, r24
 448:	08 c0       	rjmp	.+16     	; 0x45a <__LOCK_REGION_LENGTH__+0x5a>
				{
					digitsOnDisplay[0] = 0; //O
 44a:	19 82       	std	Y+1, r1	; 0x01
					digitsOnDisplay[1] = 14;//P
 44c:	8e e0       	ldi	r24, 0x0E	; 14
 44e:	8a 83       	std	Y+2, r24	; 0x02
					digitsOnDisplay[2] = 15;//E
 450:	8f e0       	ldi	r24, 0x0F	; 15
 452:	8b 83       	std	Y+3, r24	; 0x03
					digitsOnDisplay[3] = 16;//N
 454:	80 e1       	ldi	r24, 0x10	; 16
 456:	8c 83       	std	Y+4, r24	; 0x04
					break;
 458:	49 c0       	rjmp	.+146    	; 0x4ec <__LOCK_REGION_LENGTH__+0xec>
				}
				
				else
				{
					digitsOnDisplay[0] = 8;   //B
 45a:	d9 82       	std	Y+1, r13	; 0x01
					digitsOnDisplay[1] = 17;  //A
 45c:	ea 82       	std	Y+2, r14	; 0x02
					digitsOnDisplay[2] = 0;   //D
 45e:	1b 82       	std	Y+3, r1	; 0x03
					digitsOnDisplay[3] = 18;  //nothing
 460:	fc 82       	std	Y+4, r15	; 0x04
 462:	00 e0       	ldi	r16, 0x00	; 0
 464:	10 e0       	ldi	r17, 0x00	; 0
					
					while(1)
					{
						setDigit(digitsOnDisplay[0], 1);
 466:	61 e0       	ldi	r22, 0x01	; 1
 468:	89 81       	ldd	r24, Y+1	; 0x01
 46a:	0e 94 80 00 	call	0x100	; 0x100 <_Z8setDigithh>
						setDigit(digitsOnDisplay[1], 2);
 46e:	62 e0       	ldi	r22, 0x02	; 2
 470:	8a 81       	ldd	r24, Y+2	; 0x02
 472:	0e 94 80 00 	call	0x100	; 0x100 <_Z8setDigithh>
						setDigit(digitsOnDisplay[2], 3);
 476:	63 e0       	ldi	r22, 0x03	; 3
 478:	8b 81       	ldd	r24, Y+3	; 0x03
 47a:	0e 94 80 00 	call	0x100	; 0x100 <_Z8setDigithh>
						setDigit(digitsOnDisplay[3], 4);
 47e:	64 e0       	ldi	r22, 0x04	; 4
 480:	8c 81       	ldd	r24, Y+4	; 0x04
 482:	0e 94 80 00 	call	0x100	; 0x100 <_Z8setDigithh>
	#else
		//round up by default
		__ticks_dc = (uint32_t)(ceil(fabs(__tmp)));
	#endif

	__builtin_avr_delay_cycles(__ticks_dc);
 486:	81 ee       	ldi	r24, 0xE1	; 225
 488:	94 e0       	ldi	r25, 0x04	; 4
 48a:	01 97       	sbiw	r24, 0x01	; 1
 48c:	f1 f7       	brne	.-4      	; 0x48a <__LOCK_REGION_LENGTH__+0x8a>
 48e:	00 c0       	rjmp	.+0      	; 0x490 <__LOCK_REGION_LENGTH__+0x90>
 490:	00 00       	nop
 492:	0f 5f       	subi	r16, 0xFF	; 255
 494:	1f 4f       	sbci	r17, 0xFF	; 255
						
						_delay_ms(5);
						del++;

						if(del >= 200) //if about 1 second passed
 496:	08 3c       	cpi	r16, 0xC8	; 200
 498:	11 05       	cpc	r17, r1
 49a:	29 f7       	brne	.-54     	; 0x466 <__LOCK_REGION_LENGTH__+0x66>
						{
							del = 0;	 //reset delay cycles counter
							setValueOnWholeDisplay(13, digitsOnDisplay);
 49c:	be 01       	movw	r22, r28
 49e:	6f 5f       	subi	r22, 0xFF	; 255
 4a0:	7f 4f       	sbci	r23, 0xFF	; 255
 4a2:	8d e0       	ldi	r24, 0x0D	; 13
 4a4:	0e 94 76 00 	call	0xec	; 0xec <_Z22setValueOnWholeDisplayhPh>
							digitPointer = 1;	 //reset iterator
 4a8:	11 e0       	ldi	r17, 0x01	; 1
							break;
						}
					}
					continue;
 4aa:	ab cf       	rjmp	.-170    	; 0x402 <__LOCK_REGION_LENGTH__+0x2>
				}
			}
			digitsOnDisplay[digitPointer-1] = static_cast<uint8_t>(numberOnKeypad);
 4ac:	fe 01       	movw	r30, r28
 4ae:	e1 0f       	add	r30, r17
 4b0:	f1 1d       	adc	r31, r1
 4b2:	80 83       	st	Z, r24
			digitPointer++;
 4b4:	1f 5f       	subi	r17, 0xFF	; 255
		}

		if(digitPointer<6)
 4b6:	16 30       	cpi	r17, 0x06	; 6
 4b8:	88 f4       	brcc	.+34     	; 0x4dc <__LOCK_REGION_LENGTH__+0xdc>
		{
			setDigit(digitsOnDisplay[0],1);
 4ba:	61 e0       	ldi	r22, 0x01	; 1
 4bc:	89 81       	ldd	r24, Y+1	; 0x01
 4be:	0e 94 80 00 	call	0x100	; 0x100 <_Z8setDigithh>
			setDigit(digitsOnDisplay[1],2);
 4c2:	62 e0       	ldi	r22, 0x02	; 2
 4c4:	8a 81       	ldd	r24, Y+2	; 0x02
 4c6:	0e 94 80 00 	call	0x100	; 0x100 <_Z8setDigithh>
			setDigit(digitsOnDisplay[2],3);
 4ca:	63 e0       	ldi	r22, 0x03	; 3
 4cc:	8b 81       	ldd	r24, Y+3	; 0x03
 4ce:	0e 94 80 00 	call	0x100	; 0x100 <_Z8setDigithh>
			setDigit(digitsOnDisplay[3],4);
 4d2:	64 e0       	ldi	r22, 0x04	; 4
 4d4:	8c 81       	ldd	r24, Y+4	; 0x04
 4d6:	0e 94 80 00 	call	0x100	; 0x100 <_Z8setDigithh>
 4da:	93 cf       	rjmp	.-218    	; 0x402 <__LOCK_REGION_LENGTH__+0x2>
		}

		else
		{
			setValueOnWholeDisplay('-', digitsOnDisplay);
 4dc:	be 01       	movw	r22, r28
 4de:	6f 5f       	subi	r22, 0xFF	; 255
 4e0:	7f 4f       	sbci	r23, 0xFF	; 255
 4e2:	8d e2       	ldi	r24, 0x2D	; 45
 4e4:	0e 94 76 00 	call	0xec	; 0xec <_Z22setValueOnWholeDisplayhPh>
			digitPointer = 1;
 4e8:	11 e0       	ldi	r17, 0x01	; 1
 4ea:	8b cf       	rjmp	.-234    	; 0x402 <__LOCK_REGION_LENGTH__+0x2>
		}
	}
	
	while(1)
	{
		setDigit(digitsOnDisplay[0], 1);
 4ec:	61 e0       	ldi	r22, 0x01	; 1
 4ee:	89 81       	ldd	r24, Y+1	; 0x01
 4f0:	0e 94 80 00 	call	0x100	; 0x100 <_Z8setDigithh>
		setDigit(digitsOnDisplay[1], 2);
 4f4:	62 e0       	ldi	r22, 0x02	; 2
 4f6:	8a 81       	ldd	r24, Y+2	; 0x02
 4f8:	0e 94 80 00 	call	0x100	; 0x100 <_Z8setDigithh>
		setDigit(digitsOnDisplay[2], 3);
 4fc:	63 e0       	ldi	r22, 0x03	; 3
 4fe:	8b 81       	ldd	r24, Y+3	; 0x03
 500:	0e 94 80 00 	call	0x100	; 0x100 <_Z8setDigithh>
		setDigit(digitsOnDisplay[3], 4);
 504:	64 e0       	ldi	r22, 0x04	; 4
 506:	8c 81       	ldd	r24, Y+4	; 0x04
 508:	0e 94 80 00 	call	0x100	; 0x100 <_Z8setDigithh>
 50c:	ef cf       	rjmp	.-34     	; 0x4ec <__LOCK_REGION_LENGTH__+0xec>

0000050e <__tablejump2__>:
 50e:	ee 0f       	add	r30, r30
 510:	ff 1f       	adc	r31, r31
 512:	05 90       	lpm	r0, Z+
 514:	f4 91       	lpm	r31, Z
 516:	e0 2d       	mov	r30, r0
 518:	09 94       	ijmp

0000051a <_exit>:
 51a:	f8 94       	cli

0000051c <__stop_program>:
 51c:	ff cf       	rjmp	.-2      	; 0x51c <__stop_program>
